Certificate:
    Data:
        Version: 1 (0x0)
        Serial Number: 1 (0x1)
        Signature Algorithm: sha256WithRSAEncryption
        Issuer: C=CH, ST=FJ, L=FZ, O=Newland, OU=Dev, CN=wang
        Validity
            Not Before: Aug 14 00:19:03 2014 GMT
            Not After : Aug 14 00:19:03 2015 GMT
        Subject: C=CN, ST=FJ, O=OrganizationName, OU=OrganizationalUnitName, CN=CommonName/emailAddress=test@email.address
        Subject Public Key Info:
            Public Key Algorithm: rsaEncryption
                Public-Key: (1024 bit)
                Modulus:
                    00:ed:26:40:bb:c0:13:70:a0:d6:f3:20:c1:af:7f:
                    88:9d:3f:2f:de:49:af:d7:36:bc:2a:9d:81:ca:b5:
                    76:b6:2e:23:25:b9:d1:f0:ea:9c:c8:99:d0:0b:35:
                    90:2d:01:60:67:7d:94:39:07:40:80:0d:7b:7a:e6:
                    20:e5:ac:1b:8b:2f:ed:21:f6:7c:45:dc:f3:d7:46:
                    97:4a:63:2d:c6:82:9c:cd:20:b2:54:c3:d8:d7:c7:
                    90:32:d6:29:45:b6:85:78:5b:d8:4c:c1:40:2a:eb:
                    ac:f8:a4:0b:7e:95:a6:9c:8f:ee:ca:ba:59:af:73:
                    62:12:96:83:c2:b1:55:c0:bf
                Exponent: 65537 (0x10001)
    Signature Algorithm: sha256WithRSAEncryption
        b4:3d:e8:7c:d1:9a:d7:6b:4c:46:1d:0a:e8:85:35:51:2e:86:
        94:5b:e8:8b:28:30:d1:4b:c0:aa:34:c9:27:9e:3a:a2:11:03:
        2b:1e:a1:a1:b0:22:e5:2e:f9:77:25:20:34:2c:e6:a2:6c:17:
        fd:ef:77:1d:83:a0:d1:2d:2e:61:06:db:4a:67:2e:2e:a0:f9:
        bf:d7:de:30:fb:48:9c:44:23:b8:a6:05:b1:92:37:95:96:9d:
        16:d0:c1:67:3d:68:0f:c6:b1:97:9a:56:97:f3:27:ff:87:e9:
        a1:f3:7d:a2:36:d2:0c:88:fa:99:d8:6e:63:16:75:d6:dc:d7:
        0c:82
-----BEGIN CERTIFICATE-----
MIICVDCCAb0CAQEwDQYJKoZIhvcNAQELBQAwVjELMAkGA1UEBhMCQ0gxCzAJBgNV
BAgMAkZKMQswCQYDVQQHDAJGWjEQMA4GA1UECgwHTmV3bGFuZDEMMAoGA1UECwwD
RGV2MQ0wCwYDVQQDDAR3YW5nMB4XDTE0MDgxNDAwMTkwM1oXDTE1MDgxNDAwMTkw
M1owgY4xCzAJBgNVBAYTAkNOMQswCQYDVQQIEwJGSjEZMBcGA1UEChMQT3JnYW5p
emF0aW9uTmFtZTEfMB0GA1UECxMWT3JnYW5pemF0aW9uYWxVbml0TmFtZTETMBEG
A1UEAxMKQ29tbW9uTmFtZTEhMB8GCSqGSIb3DQEJARYSdGVzdEBlbWFpbC5hZGRy
ZXNzMIGfMA0GCSqGSIb3DQEBAQUAA4GNADCBiQKBgQDtJkC7wBNwoNbzIMGvf4id
Py/eSa/XNrwqnYHKtXa2LiMludHw6pzImdALNZAtAWBnfZQ5B0CADXt65iDlrBuL
L+0h9nxF3PPXRpdKYy3GgpzNILJUw9jXx5Ay1ilFtoV4W9hMwUAq66z4pAt+laac
j+7Kulmvc2ISloPCsVXAvwIDAQABMA0GCSqGSIb3DQEBCwUAA4GBALQ96HzRmtdr
TEYdCuiFNVEuhpRb6IsoMNFLwKo0ySeeOqIRAyseoaGwIuUu+XclIDQs5qJsF/3v
dx2DoNEtLmEG20pnLi6g+b/X3jD7SJxEI7imBbGSN5WWnRbQwWc9aA/GsZeaVpfz
J/+H6aHzfaI20gyI+pnYbmMWddbc1wyC
-----END CERTIFICATE-----
